; Function Attrs: mustprogress uwtable
define noundef zeroext i1 @_ZN2cv5utils2fs15createDirectoryERKNSt7__cxx1112basic_stringIcSt11char_traitsIcESaIcEEE(ptr noundef nonnull align 8 dereferenceable(32) %0) local_unnamed_addr #3 personality ptr @__gxx_personality_v0 {
  %2 = alloca %"class.cv::utils::trace::details::Region", align 8
  call void @llvm.lifetime.start.p0(i64 16, ptr nonnull %2) #23
  call void @_ZN2cv5utils5trace7details6RegionC1ERKNS3_21LocationStaticStorageE(ptr noundef nonnull align 8 dereferenceable(12) %2, ptr noundef nonnull align 8 dereferenceable(32) @_ZZN2cv5utils2fs15createDirectoryERKNSt7__cxx1112basic_stringIcSt11char_traitsIcESaIcEEEE25__cv_trace_location_fn221)
  %3 = load ptr, ptr %0, align 8, !tbaa !12
  %4 = call i32 @mkdir(ptr noundef %3, i32 noundef 511) #23
  %5 = icmp eq i32 %4, -1
  br i1 %5, label %6, label %10

6:                                                ; preds = %1
  %7 = invoke noundef zeroext i1 @_ZN2cv5utils2fs11isDirectoryERKNSt7__cxx1112basic_stringIcSt11char_traitsIcESaIcEEE(ptr noundef nonnull align 8 dereferenceable(32) %0)
          to label %10 unwind label %8

8:                                                ; preds = %6
  %9 = landingpad { ptr, i32 }
          cleanup
  call void @_ZN2cv5utils5trace7details6RegionD2Ev(ptr noundef nonnull align 8 dereferenceable(12) %2) #23
  call void @llvm.lifetime.end.p0(i64 16, ptr nonnull %2) #23
  resume { ptr, i32 } %9

10:                                               ; preds = %1, %6
  %.0 = phi i1 [ %7, %6 ], [ true, %1 ]
  %11 = getelementptr inbounds nuw i8, ptr %2, i64 8
  %12 = load i32, ptr %11, align 8, !tbaa !36
  %.not.i = icmp eq i32 %12, 0
  br i1 %.not.i, label %_ZN2cv5utils5trace7details6RegionD2Ev.exit, label %13

13:                                               ; preds = %10
  invoke void @_ZN2cv5utils5trace7details6Region7destroyEv(ptr noundef nonnull align 8 dereferenceable(12) %2)
          to label %_ZN2cv5utils5trace7details6RegionD2Ev.exit unwind label %14

14:                                               ; preds = %13
  %15 = landingpad { ptr, i32 }
          catch ptr null
  %16 = extractvalue { ptr, i32 } %15, 0
  call void @__clang_call_terminate(ptr %16) #26
  unreachable

_ZN2cv5utils5trace7details6RegionD2Ev.exit:       ; preds = %10, %13
  call void @llvm.lifetime.end.p0(i64 16, ptr nonnull %2) #23
  ret i1 %.0
}